target datalayout = "e-m:e-p270:32:32-p271:32:32-p272:64:64-i64:64-i128:128-f80:128-n8:16:32:64-S128"
target triple = "x86_64-pc-linux-gnu"

%struct.lua_State = type { i8, i8, i8, i8, i8, i8, i8, ptr, ptr, ptr, ptr, ptr, ptr, ptr, ptr, i32, i32, i16, i16, i32, ptr, ptr, ptr, ptr, ptr }

; Function Attrs: mustprogress nounwind uwtable
define dso_local noundef i32 @_Z17lua_isthreadresetP9lua_State(ptr noundef %0) #2 {
  %2 = alloca ptr, align 8
  store ptr %0, ptr %2, align 8
  %3 = load ptr, ptr %2, align 8
  %4 = getelementptr inbounds %struct.lua_State, ptr %3, i32 0, i32 10
  %5 = load ptr, ptr %4, align 8
  %6 = load ptr, ptr %2, align 8
  %7 = getelementptr inbounds %struct.lua_State, ptr %6, i32 0, i32 14
  %8 = load ptr, ptr %7, align 8
  %9 = icmp eq ptr %5, %8
  br i1 %9, label %10, label %24

10:                                               ; preds = %1
  %11 = load ptr, ptr %2, align 8
  %12 = getelementptr inbounds %struct.lua_State, ptr %11, i32 0, i32 8
  %13 = load ptr, ptr %12, align 8
  %14 = load ptr, ptr %2, align 8
  %15 = getelementptr inbounds %struct.lua_State, ptr %14, i32 0, i32 7
  %16 = load ptr, ptr %15, align 8
  %17 = icmp eq ptr %13, %16
  br i1 %17, label %18, label %24

18:                                               ; preds = %10
  %19 = load ptr, ptr %2, align 8
  %20 = getelementptr inbounds %struct.lua_State, ptr %19, i32 0, i32 3
  %21 = load i8, ptr %20, align 1
  %22 = zext i8 %21 to i32
  %23 = icmp eq i32 %22, 0
  br label %24

24:                                               ; preds = %18, %10, %1
  %25 = phi i1 [ false, %10 ], [ false, %1 ], [ %23, %18 ]
  %26 = zext i1 %25 to i32
  ret i32 %26
}