; Function Attrs: mustprogress nofree norecurse nosync nounwind willreturn memory(argmem: read) uwtable
define dso_local noundef range(i32 0, 2) i32 @_Z17lua_isthreadresetP9lua_State(ptr noundef readonly captures(none) %0) local_unnamed_addr #2 {
  %2 = getelementptr inbounds nuw i8, ptr %0, i64 32
  %3 = load ptr, ptr %2, align 8
  %4 = getelementptr inbounds nuw i8, ptr %0, i64 64
  %5 = load ptr, ptr %4, align 8
  %6 = icmp eq ptr %3, %5
  br i1 %6, label %7, label %18

7:                                                ; preds = %1
  %8 = getelementptr inbounds nuw i8, ptr %0, i64 16
  %9 = load ptr, ptr %8, align 8
  %10 = getelementptr inbounds nuw i8, ptr %0, i64 8
  %11 = load ptr, ptr %10, align 8
  %12 = icmp eq ptr %9, %11
  br i1 %12, label %13, label %18

13:                                               ; preds = %7
  %14 = getelementptr inbounds nuw i8, ptr %0, i64 3
  %15 = load i8, ptr %14, align 1
  %16 = icmp eq i8 %15, 0
  %17 = zext i1 %16 to i32
  br label %18

18:                                               ; preds = %13, %7, %1
  %19 = phi i32 [ 0, %7 ], [ 0, %1 ], [ %17, %13 ]
  ret i32 %19
}